; Function Attrs: mustprogress nofree norecurse nosync nounwind willreturn memory(read, inaccessiblemem: none) uwtable
define hidden noundef i32 @_ZNK7datalog4rule4hashEv(ptr nocapture noundef nonnull readonly align 8 dereferenceable(80) %this) local_unnamed_addr #8 align 2 {
entry:
  %m_head.i = getelementptr inbounds i8, ptr %this, i64 40
  %0 = load ptr, ptr %m_head.i, align 8
  %m_hash.i = getelementptr inbounds i8, ptr %0, i64 12
  %1 = load i32, ptr %m_hash.i, align 4
  %m_tail_size.i = getelementptr inbounds i8, ptr %this, i64 56
  %2 = load i32, ptr %m_tail_size.i, align 8
  %cmp19.not = icmp eq i32 %2, 0
  br i1 %cmp19.not, label %for.end, label %for.body.lr.ph

for.body.lr.ph:                                   ; preds = %entry
  %m_tail.i = getelementptr inbounds i8, ptr %this, i64 80
  %wide.trip.count = zext i32 %2 to i64
  br label %for.body

for.body:                                         ; preds = %for.body.lr.ph, %for.body
  %indvars.iv = phi i64 [ 0, %for.body.lr.ph ], [ %indvars.iv.next, %for.body ]
  %res.020 = phi i32 [ %1, %for.body.lr.ph ], [ %xor6.i18, %for.body ]
  %arrayidx.i = getelementptr inbounds [0 x ptr], ptr %m_tail.i, i64 0, i64 %indvars.iv
  %3 = load ptr, ptr %arrayidx.i, align 8
  %4 = ptrtoint ptr %3 to i64
  %and.i = and i64 %4, -8
  %5 = inttoptr i64 %and.i to ptr
  %m_hash.i5 = getelementptr inbounds i8, ptr %5, i64 12
  %6 = load i32, ptr %m_hash.i5, align 4
  %and.i9 = and i64 %4, 7
  %cmp.i = icmp eq i64 %and.i9, 1
  %conv = zext i1 %cmp.i to i32
  %sub.i = sub i32 %conv, %6
  %shl.i = shl i32 %6, 8
  %xor.i = xor i32 %sub.i, %shl.i
  %sub1.i = sub i32 %6, %xor.i
  %shl2.i = shl i32 %sub1.i, 16
  %xor3.i = xor i32 %shl2.i, %xor.i
  %sub4.i = sub i32 %xor3.i, %sub1.i
  %shl5.i = shl i32 %sub1.i, 10
  %xor6.i = xor i32 %sub4.i, %shl5.i
  %sub.i10 = sub i32 %xor6.i, %res.020
  %shl.i11 = shl i32 %res.020, 8
  %xor.i12 = xor i32 %sub.i10, %shl.i11
  %sub1.i13 = sub i32 %res.020, %xor.i12
  %shl2.i14 = shl i32 %sub1.i13, 16
  %xor3.i15 = xor i32 %shl2.i14, %xor.i12
  %sub4.i16 = sub i32 %xor3.i15, %sub1.i13
  %shl5.i17 = shl i32 %sub1.i13, 10
  %xor6.i18 = xor i32 %sub4.i16, %shl5.i17
  %indvars.iv.next = add nuw nsw i64 %indvars.iv, 1
  %exitcond.not = icmp eq i64 %indvars.iv.next, %wide.trip.count
  br i1 %exitcond.not, label %for.end, label %for.body, !llvm.loop !120

for.end:                                          ; preds = %for.body, %entry
  %res.0.lcssa = phi i32 [ %1, %entry ], [ %xor6.i18, %for.body ]
  ret i32 %res.0.lcssa
}